target datalayout = "e-m:e-p270:32:32-p271:32:32-p272:64:64-i64:64-i128:128-f80:128-n8:16:32:64-S128"
target triple = "x86_64-pc-linux-gnu"

@hf_gryphon_blm_stat_receive_frame_count = internal global i32 0, align 4
@hf_gryphon_blm_stat_transmit_frame_count = internal global i32 0, align 4
@hf_gryphon_blm_stat_receive_dropped_frame_count = internal global i32 0, align 4
@hf_gryphon_blm_stat_transmit_dropped_frame_count = internal global i32 0, align 4
@hf_gryphon_blm_stat_receive_error_count = internal global i32 0, align 4
@hf_gryphon_blm_stat_transmit_error_count = internal global i32 0, align 4

; Function Attrs: null_pointer_is_valid sspstrong uwtable
define internal i32 @resp_blm_stat(ptr noundef %0, i32 noundef %1, ptr noundef %2) #0 {
  %4 = alloca ptr, align 8
  %5 = alloca i32, align 4
  %6 = alloca ptr, align 8
  store ptr %0, ptr %4, align 8
  store i32 %1, ptr %5, align 4
  store ptr %2, ptr %6, align 8
  %7 = load ptr, ptr %4, align 8
  %8 = load i32, ptr %5, align 4
  %9 = load ptr, ptr %6, align 8
  %10 = call i32 @resp_blm_data(ptr noundef %7, i32 noundef %8, ptr noundef %9)
  store i32 %10, ptr %5, align 4
  %11 = load ptr, ptr %6, align 8
  %12 = load i32, ptr @hf_gryphon_blm_stat_receive_frame_count, align 4
  %13 = load ptr, ptr %4, align 8
  %14 = load i32, ptr %5, align 4
  %15 = call ptr @proto_tree_add_item(ptr noundef %11, i32 noundef %12, ptr noundef %13, i32 noundef %14, i32 noundef 4, i32 noundef 0)
  %16 = load i32, ptr %5, align 4
  %17 = add i32 %16, 4
  store i32 %17, ptr %5, align 4
  %18 = load ptr, ptr %6, align 8
  %19 = load i32, ptr @hf_gryphon_blm_stat_transmit_frame_count, align 4
  %20 = load ptr, ptr %4, align 8
  %21 = load i32, ptr %5, align 4
  %22 = call ptr @proto_tree_add_item(ptr noundef %18, i32 noundef %19, ptr noundef %20, i32 noundef %21, i32 noundef 4, i32 noundef 0)
  %23 = load i32, ptr %5, align 4
  %24 = add i32 %23, 4
  store i32 %24, ptr %5, align 4
  %25 = load ptr, ptr %6, align 8
  %26 = load i32, ptr @hf_gryphon_blm_stat_receive_dropped_frame_count, align 4
  %27 = load ptr, ptr %4, align 8
  %28 = load i32, ptr %5, align 4
  %29 = call ptr @proto_tree_add_item(ptr noundef %25, i32 noundef %26, ptr noundef %27, i32 noundef %28, i32 noundef 4, i32 noundef 0)
  %30 = load i32, ptr %5, align 4
  %31 = add i32 %30, 4
  store i32 %31, ptr %5, align 4
  %32 = load ptr, ptr %6, align 8
  %33 = load i32, ptr @hf_gryphon_blm_stat_transmit_dropped_frame_count, align 4
  %34 = load ptr, ptr %4, align 8
  %35 = load i32, ptr %5, align 4
  %36 = call ptr @proto_tree_add_item(ptr noundef %32, i32 noundef %33, ptr noundef %34, i32 noundef %35, i32 noundef 4, i32 noundef 0)
  %37 = load i32, ptr %5, align 4
  %38 = add i32 %37, 4
  store i32 %38, ptr %5, align 4
  %39 = load ptr, ptr %6, align 8
  %40 = load i32, ptr @hf_gryphon_blm_stat_receive_error_count, align 4
  %41 = load ptr, ptr %4, align 8
  %42 = load i32, ptr %5, align 4
  %43 = call ptr @proto_tree_add_item(ptr noundef %39, i32 noundef %40, ptr noundef %41, i32 noundef %42, i32 noundef 4, i32 noundef 0)
  %44 = load i32, ptr %5, align 4
  %45 = add i32 %44, 4
  store i32 %45, ptr %5, align 4
  %46 = load ptr, ptr %6, align 8
  %47 = load i32, ptr @hf_gryphon_blm_stat_transmit_error_count, align 4
  %48 = load ptr, ptr %4, align 8
  %49 = load i32, ptr %5, align 4
  %50 = call ptr @proto_tree_add_item(ptr noundef %46, i32 noundef %47, ptr noundef %48, i32 noundef %49, i32 noundef 4, i32 noundef 0)
  %51 = load i32, ptr %5, align 4
  %52 = add i32 %51, 4
  store i32 %52, ptr %5, align 4
  %53 = load i32, ptr %5, align 4
  ret i32 %53
}