; Function Attrs: null_pointer_is_valid sspstrong uwtable
define internal fastcc void @resp_blm_stat(ptr noundef %0, ptr noundef %1) unnamed_addr #0 {
  tail call fastcc void @resp_blm_data(ptr noundef %0, ptr noundef %1)
  %3 = load i32, ptr @hf_gryphon_blm_stat_receive_frame_count, align 4
  %4 = tail call ptr @proto_tree_add_item(ptr noundef %1, i32 noundef %3, ptr noundef %0, i32 noundef 28, i32 noundef 4, i32 noundef 0)
  %5 = load i32, ptr @hf_gryphon_blm_stat_transmit_frame_count, align 4
  %6 = tail call ptr @proto_tree_add_item(ptr noundef %1, i32 noundef %5, ptr noundef %0, i32 noundef 32, i32 noundef 4, i32 noundef 0)
  %7 = load i32, ptr @hf_gryphon_blm_stat_receive_dropped_frame_count, align 4
  %8 = tail call ptr @proto_tree_add_item(ptr noundef %1, i32 noundef %7, ptr noundef %0, i32 noundef 36, i32 noundef 4, i32 noundef 0)
  %9 = load i32, ptr @hf_gryphon_blm_stat_transmit_dropped_frame_count, align 4
  %10 = tail call ptr @proto_tree_add_item(ptr noundef %1, i32 noundef %9, ptr noundef %0, i32 noundef 40, i32 noundef 4, i32 noundef 0)
  %11 = load i32, ptr @hf_gryphon_blm_stat_receive_error_count, align 4
  %12 = tail call ptr @proto_tree_add_item(ptr noundef %1, i32 noundef %11, ptr noundef %0, i32 noundef 44, i32 noundef 4, i32 noundef 0)
  %13 = load i32, ptr @hf_gryphon_blm_stat_transmit_error_count, align 4
  %14 = tail call ptr @proto_tree_add_item(ptr noundef %1, i32 noundef %13, ptr noundef %0, i32 noundef 48, i32 noundef 4, i32 noundef 0)
  ret void
}